; Function Attrs: nounwind uwtable
define i32 @b2Shape_GetSensorCapacity(i64 %0) local_unnamed_addr #0 {
  %.sroa.2.0.extract.shift = lshr i64 %0, 32
  %2 = trunc nuw i64 %.sroa.2.0.extract.shift to i32
  %3 = and i32 %2, 65535
  %4 = tail call ptr @b2GetWorldLocked(i32 noundef %3) #10
  %5 = icmp eq ptr %4, null
  br i1 %5, label %18, label %6

6:                                                ; preds = %1
  %7 = getelementptr i8, ptr %4, i64 1256
  %.val = load ptr, ptr %7, align 8, !tbaa !14
  %8 = shl i64 %0, 32
  %sext.i = add i64 %8, -4294967296
  %9 = ashr exact i64 %sext.i, 32
  %10 = getelementptr inbounds %struct.b2Shape, ptr %.val, i64 %9, i32 4
  %11 = load i32, ptr %10, align 8, !tbaa !55
  %12 = icmp eq i32 %11, -1
  br i1 %12, label %18, label %13

13:                                               ; preds = %6
  %14 = getelementptr inbounds nuw i8, ptr %4, i64 1288
  %.val8 = load ptr, ptr %14, align 8, !tbaa !56
  %15 = sext i32 %11 to i64
  %16 = getelementptr inbounds %struct.b2Sensor, ptr %.val8, i64 %15, i32 1, i32 1
  %17 = load i32, ptr %16, align 8, !tbaa !59
  br label %18

18:                                               ; preds = %13, %6, %1
  %.0 = phi i32 [ 0, %1 ], [ %17, %13 ], [ 0, %6 ]
  ret i32 %.0
}